target datalayout = "e-m:e-p270:32:32-p271:32:32-p272:64:64-i64:64-i128:128-f80:128-n8:16:32:64-S128"
target triple = "x86_64-pc-linux-gnu"

%"class.cvc5::internal::Integer" = type { %class.__gmp_expr }
%class.__gmp_expr = type { [1 x %struct.__mpz_struct] }
%struct.__mpz_struct = type { i32, i32, ptr }
%class.__gmp_expr.1 = type { %struct.__gmp_binary_expr }
%struct.__gmp_binary_expr = type { ptr, ptr }

; Function Attrs: mustprogress uwtable
define linkonce_odr hidden void @_ZN17__gmp_binary_plus4evalEP12__mpz_structPKS0_S3_(ptr noundef %0, ptr noundef %1, ptr noundef %2) #0 comdat align 2 {
  %4 = alloca ptr, align 8
  %5 = alloca ptr, align 8
  %6 = alloca ptr, align 8
  store ptr %0, ptr %4, align 8, !tbaa !30
  store ptr %1, ptr %5, align 8, !tbaa !30
  store ptr %2, ptr %6, align 8, !tbaa !30
  %7 = load ptr, ptr %4, align 8, !tbaa !30
  %8 = load ptr, ptr %5, align 8, !tbaa !30
  %9 = load ptr, ptr %6, align 8, !tbaa !30
  call void @__gmpz_add(ptr noundef %7, ptr noundef %8, ptr noundef %9)
  ret void
}

; Function Attrs: mustprogress nounwind uwtable
define linkonce_odr hidden noundef ptr @_ZNK10__gmp_exprIA1_12__mpz_structS1_E8__get_mpEv(ptr noundef nonnull align 8 dereferenceable(16) %0) #3 comdat align 2 {
  %2 = alloca ptr, align 8
  store ptr %0, ptr %2, align 8, !tbaa !12
  %3 = load ptr, ptr %2, align 8
  %4 = getelementptr inbounds nuw %class.__gmp_expr, ptr %3, i32 0, i32 0
  %5 = getelementptr inbounds [1 x %struct.__mpz_struct], ptr %4, i64 0, i64 0
  ret ptr %5
}

; Function Attrs: mustprogress uwtable
define linkonce_odr hidden void @_ZNK10__gmp_exprIA1_12__mpz_struct17__gmp_binary_exprIS_IS1_S1_ES3_17__gmp_binary_plusEE4evalEPS0_(ptr noundef nonnull align 8 dereferenceable(16) %0, ptr noundef %1) #0 comdat align 2 {
  %3 = alloca ptr, align 8
  %4 = alloca ptr, align 8
  store ptr %0, ptr %3, align 8, !tbaa !18
  store ptr %1, ptr %4, align 8, !tbaa !30
  %5 = load ptr, ptr %3, align 8
  %6 = load ptr, ptr %4, align 8, !tbaa !30
  %7 = getelementptr inbounds nuw %class.__gmp_expr.1, ptr %5, i32 0, i32 0
  %8 = getelementptr inbounds nuw %struct.__gmp_binary_expr, ptr %7, i32 0, i32 0
  %9 = load ptr, ptr %8, align 8, !tbaa !68
  %10 = call noundef ptr @_ZNK10__gmp_exprIA1_12__mpz_structS1_E8__get_mpEv(ptr noundef nonnull align 8 dereferenceable(16) %9)
  %11 = getelementptr inbounds nuw %class.__gmp_expr.1, ptr %5, i32 0, i32 0
  %12 = getelementptr inbounds nuw %struct.__gmp_binary_expr, ptr %11, i32 0, i32 1
  %13 = load ptr, ptr %12, align 8, !tbaa !71
  %14 = call noundef ptr @_ZNK10__gmp_exprIA1_12__mpz_structS1_E8__get_mpEv(ptr noundef nonnull align 8 dereferenceable(16) %13)
  call void @_ZN17__gmp_binary_plus4evalEP12__mpz_structPKS0_S3_(ptr noundef %6, ptr noundef %10, ptr noundef %14)
  ret void
}

; Function Attrs: mustprogress nounwind uwtable
define linkonce_odr hidden void @_ZN17__gmp_binary_exprI10__gmp_exprIA1_12__mpz_structS2_ES3_17__gmp_binary_plusEC2ERKS3_S7_(ptr noundef nonnull align 8 dereferenceable(16) %0, ptr noundef nonnull align 8 dereferenceable(16) %1, ptr noundef nonnull align 8 dereferenceable(16) %2) unnamed_addr #3 comdat align 2 {
  %4 = alloca ptr, align 8
  %5 = alloca ptr, align 8
  %6 = alloca ptr, align 8
  store ptr %0, ptr %4, align 8, !tbaa !66
  store ptr %1, ptr %5, align 8, !tbaa !12
  store ptr %2, ptr %6, align 8, !tbaa !12
  %7 = load ptr, ptr %4, align 8
  %8 = getelementptr inbounds nuw %struct.__gmp_binary_expr, ptr %7, i32 0, i32 0
  %9 = load ptr, ptr %5, align 8, !tbaa !12
  store ptr %9, ptr %8, align 8, !tbaa !12
  %10 = getelementptr inbounds nuw %struct.__gmp_binary_expr, ptr %7, i32 0, i32 1
  %11 = load ptr, ptr %6, align 8, !tbaa !12
  store ptr %11, ptr %10, align 8, !tbaa !12
  ret void
}

; Function Attrs: mustprogress uwtable
define linkonce_odr hidden void @_ZN10__gmp_exprIA1_12__mpz_structS1_EC2ERKS2_(ptr noundef nonnull align 8 dereferenceable(16) %0, ptr noundef nonnull align 8 dereferenceable(16) %1) unnamed_addr #0 comdat align 2 {
  %3 = alloca ptr, align 8
  %4 = alloca ptr, align 8
  store ptr %0, ptr %3, align 8, !tbaa !12
  store ptr %1, ptr %4, align 8, !tbaa !12
  %5 = load ptr, ptr %3, align 8
  %6 = getelementptr inbounds nuw %class.__gmp_expr, ptr %5, i32 0, i32 0
  %7 = getelementptr inbounds [1 x %struct.__mpz_struct], ptr %6, i64 0, i64 0
  %8 = load ptr, ptr %4, align 8, !tbaa !12
  %9 = getelementptr inbounds nuw %class.__gmp_expr, ptr %8, i32 0, i32 0
  %10 = getelementptr inbounds [1 x %struct.__mpz_struct], ptr %9, i64 0, i64 0
  call void @__gmpz_init_set(ptr noundef %7, ptr noundef %10)
  ret void
}

; Function Attrs: inlinehint mustprogress uwtable
define linkonce_odr hidden void @_Z14__gmp_set_exprI17__gmp_binary_exprI10__gmp_exprIA1_12__mpz_structS3_ES4_17__gmp_binary_plusEEvPS2_RKS1_IS3_T_E(ptr noundef %0, ptr noundef nonnull align 8 dereferenceable(16) %1) #1 comdat {
  %3 = alloca ptr, align 8
  %4 = alloca ptr, align 8
  store ptr %0, ptr %3, align 8, !tbaa !30
  store ptr %1, ptr %4, align 8, !tbaa !18
  %5 = load ptr, ptr %4, align 8, !tbaa !18
  %6 = load ptr, ptr %3, align 8, !tbaa !30
  call void @_ZNK10__gmp_exprIA1_12__mpz_struct17__gmp_binary_exprIS_IS1_S1_ES3_17__gmp_binary_plusEE4evalEPS0_(ptr noundef nonnull align 8 dereferenceable(16) %5, ptr noundef %6)
  ret void
}

; Function Attrs: mustprogress uwtable
define linkonce_odr hidden void @_ZN10__gmp_exprIA1_12__mpz_struct17__gmp_binary_exprIS_IS1_S1_ES3_17__gmp_binary_plusEEC2ERKS3_S8_(ptr noundef nonnull align 8 dereferenceable(16) %0, ptr noundef nonnull align 8 dereferenceable(16) %1, ptr noundef nonnull align 8 dereferenceable(16) %2) unnamed_addr #0 comdat align 2 {
  %4 = alloca ptr, align 8
  %5 = alloca ptr, align 8
  %6 = alloca ptr, align 8
  store ptr %0, ptr %4, align 8, !tbaa !18
  store ptr %1, ptr %5, align 8, !tbaa !12
  store ptr %2, ptr %6, align 8, !tbaa !12
  %7 = load ptr, ptr %4, align 8
  %8 = getelementptr inbounds nuw %class.__gmp_expr.1, ptr %7, i32 0, i32 0
  %9 = load ptr, ptr %5, align 8, !tbaa !12
  %10 = load ptr, ptr %6, align 8, !tbaa !12
  call void @_ZN17__gmp_binary_exprI10__gmp_exprIA1_12__mpz_structS2_ES3_17__gmp_binary_plusEC2ERKS3_S7_(ptr noundef nonnull align 8 dereferenceable(16) %8, ptr noundef nonnull align 8 dereferenceable(16) %9, ptr noundef nonnull align 8 dereferenceable(16) %10)
  ret void
}

; Function Attrs: mustprogress nounwind uwtable
define linkonce_odr hidden void @_ZN10__gmp_exprIA1_12__mpz_structS1_ED2Ev(ptr noundef nonnull align 8 dereferenceable(16) %0) unnamed_addr #3 comdat align 2 personality ptr @__gxx_personality_v0 {
  %2 = alloca ptr, align 8
  store ptr %0, ptr %2, align 8, !tbaa !12
  %3 = load ptr, ptr %2, align 8
  %4 = getelementptr inbounds nuw %class.__gmp_expr, ptr %3, i32 0, i32 0
  %5 = getelementptr inbounds [1 x %struct.__mpz_struct], ptr %4, i64 0, i64 0
  invoke void @__gmpz_clear(ptr noundef %5)
          to label %6 unwind label %7

6:                                                ; preds = %1
  ret void

7:                                                ; preds = %1
  %8 = landingpad { ptr, i32 }
          catch ptr null
  %9 = extractvalue { ptr, i32 } %8, 0
  call void @__clang_call_terminate(ptr %9) #18
  unreachable
}

; Function Attrs: mustprogress uwtable
define linkonce_odr hidden void @_ZN4cvc58internal7IntegerC2ERK10__gmp_exprIA1_12__mpz_structS4_E(ptr noundef nonnull align 8 dereferenceable(16) %0, ptr noundef nonnull align 8 dereferenceable(16) %1) unnamed_addr #0 comdat align 2 {
  %3 = alloca ptr, align 8
  %4 = alloca ptr, align 8
  store ptr %0, ptr %3, align 8, !tbaa !3
  store ptr %1, ptr %4, align 8, !tbaa !12
  %5 = load ptr, ptr %3, align 8
  %6 = getelementptr inbounds nuw %"class.cvc5::internal::Integer", ptr %5, i32 0, i32 0
  %7 = load ptr, ptr %4, align 8, !tbaa !12
  call void @_ZN10__gmp_exprIA1_12__mpz_structS1_EC2ERKS2_(ptr noundef nonnull align 8 dereferenceable(16) %6, ptr noundef nonnull align 8 dereferenceable(16) %7)
  ret void
}

; Function Attrs: mustprogress uwtable
define linkonce_odr hidden void @_ZN10__gmp_exprIA1_12__mpz_structS1_EC2I17__gmp_binary_exprIS2_S2_17__gmp_binary_plusEEERKS_IS1_T_E(ptr noundef nonnull align 8 dereferenceable(16) %0, ptr noundef nonnull align 8 dereferenceable(16) %1) unnamed_addr #0 comdat align 2 {
  %3 = alloca ptr, align 8
  %4 = alloca ptr, align 8
  store ptr %0, ptr %3, align 8, !tbaa !12
  store ptr %1, ptr %4, align 8, !tbaa !18
  %5 = load ptr, ptr %3, align 8
  %6 = getelementptr inbounds nuw %class.__gmp_expr, ptr %5, i32 0, i32 0
  %7 = getelementptr inbounds [1 x %struct.__mpz_struct], ptr %6, i64 0, i64 0
  call void @__gmpz_init(ptr noundef %7) #16
  %8 = getelementptr inbounds nuw %class.__gmp_expr, ptr %5, i32 0, i32 0
  %9 = getelementptr inbounds [1 x %struct.__mpz_struct], ptr %8, i64 0, i64 0
  %10 = load ptr, ptr %4, align 8, !tbaa !18
  call void @_Z14__gmp_set_exprI17__gmp_binary_exprI10__gmp_exprIA1_12__mpz_structS3_ES4_17__gmp_binary_plusEEvPS2_RKS1_IS3_T_E(ptr noundef %9, ptr noundef nonnull align 8 dereferenceable(16) %10)
  ret void
}

; Function Attrs: inlinehint mustprogress uwtable
define linkonce_odr hidden { ptr, ptr } @_ZplIA1_12__mpz_structS1_S1_S1_E10__gmp_exprIN18__gmp_resolve_exprIT_T1_E10value_typeE17__gmp_binary_exprIS2_IS4_T0_ES2_IS5_T2_E17__gmp_binary_plusEERKSA_RKSC_(ptr noundef nonnull align 8 dereferenceable(16) %0, ptr noundef nonnull align 8 dereferenceable(16) %1) #1 comdat {
  %3 = alloca %class.__gmp_expr.1, align 8
  %4 = alloca ptr, align 8
  %5 = alloca ptr, align 8
  store ptr %0, ptr %4, align 8, !tbaa !12
  store ptr %1, ptr %5, align 8, !tbaa !12
  %6 = load ptr, ptr %4, align 8, !tbaa !12
  %7 = load ptr, ptr %5, align 8, !tbaa !12
  call void @_ZN10__gmp_exprIA1_12__mpz_struct17__gmp_binary_exprIS_IS1_S1_ES3_17__gmp_binary_plusEEC2ERKS3_S8_(ptr noundef nonnull align 8 dereferenceable(16) %3, ptr noundef nonnull align 8 dereferenceable(16) %6, ptr noundef nonnull align 8 dereferenceable(16) %7)
  %8 = getelementptr inbounds nuw %class.__gmp_expr.1, ptr %3, i32 0, i32 0
  %9 = load { ptr, ptr }, ptr %8, align 8
  ret { ptr, ptr } %9
}

; Function Attrs: mustprogress uwtable
define hidden void @_ZNK4cvc58internal7IntegerplERKS1_(ptr dead_on_unwind noalias writable sret(%"class.cvc5::internal::Integer") align 8 %0, ptr noundef nonnull align 8 dereferenceable(16) %1, ptr noundef nonnull align 8 dereferenceable(16) %2) #0 align 2 personality ptr @__gxx_personality_v0 {
  %4 = alloca ptr, align 8
  %5 = alloca ptr, align 8
  %6 = alloca ptr, align 8
  %7 = alloca %class.__gmp_expr, align 8
  %8 = alloca %class.__gmp_expr.1, align 8
  %9 = alloca ptr, align 8
  %10 = alloca i32, align 4
  store ptr %0, ptr %4, align 8
  store ptr %1, ptr %5, align 8, !tbaa !3
  store ptr %2, ptr %6, align 8, !tbaa !3
  %11 = load ptr, ptr %5, align 8
  call void @llvm.lifetime.start.p0(i64 16, ptr %7) #16
  call void @llvm.lifetime.start.p0(i64 16, ptr %8) #16
  %12 = getelementptr inbounds nuw %"class.cvc5::internal::Integer", ptr %11, i32 0, i32 0
  %13 = load ptr, ptr %6, align 8, !tbaa !3
  %14 = getelementptr inbounds nuw %"class.cvc5::internal::Integer", ptr %13, i32 0, i32 0
  %15 = call { ptr, ptr } @_ZplIA1_12__mpz_structS1_S1_S1_E10__gmp_exprIN18__gmp_resolve_exprIT_T1_E10value_typeE17__gmp_binary_exprIS2_IS4_T0_ES2_IS5_T2_E17__gmp_binary_plusEERKSA_RKSC_(ptr noundef nonnull align 8 dereferenceable(16) %12, ptr noundef nonnull align 8 dereferenceable(16) %14)
  %16 = getelementptr inbounds nuw %class.__gmp_expr.1, ptr %8, i32 0, i32 0
  %17 = getelementptr inbounds nuw { ptr, ptr }, ptr %16, i32 0, i32 0
  %18 = extractvalue { ptr, ptr } %15, 0
  store ptr %18, ptr %17, align 8
  %19 = getelementptr inbounds nuw { ptr, ptr }, ptr %16, i32 0, i32 1
  %20 = extractvalue { ptr, ptr } %15, 1
  store ptr %20, ptr %19, align 8
  call void @_ZN10__gmp_exprIA1_12__mpz_structS1_EC2I17__gmp_binary_exprIS2_S2_17__gmp_binary_plusEEERKS_IS1_T_E(ptr noundef nonnull align 8 dereferenceable(16) %7, ptr noundef nonnull align 8 dereferenceable(16) %8)
  invoke void @_ZN4cvc58internal7IntegerC2ERK10__gmp_exprIA1_12__mpz_structS4_E(ptr noundef nonnull align 8 dereferenceable(16) %0, ptr noundef nonnull align 8 dereferenceable(16) %7)
          to label %21 unwind label %22

21:                                               ; preds = %3
  call void @_ZN10__gmp_exprIA1_12__mpz_structS1_ED2Ev(ptr noundef nonnull align 8 dereferenceable(16) %7) #16
  call void @llvm.lifetime.end.p0(i64 16, ptr %8) #16
  call void @llvm.lifetime.end.p0(i64 16, ptr %7) #16
  ret void

22:                                               ; preds = %3
  %23 = landingpad { ptr, i32 }
          cleanup
  %24 = extractvalue { ptr, i32 } %23, 0
  store ptr %24, ptr %9, align 8
  %25 = extractvalue { ptr, i32 } %23, 1
  store i32 %25, ptr %10, align 4
  call void @_ZN10__gmp_exprIA1_12__mpz_structS1_ED2Ev(ptr noundef nonnull align 8 dereferenceable(16) %7) #16
  call void @llvm.lifetime.end.p0(i64 16, ptr %8) #16
  call void @llvm.lifetime.end.p0(i64 16, ptr %7) #16
  br label %26

26:                                               ; preds = %22
  %27 = load ptr, ptr %9, align 8
  %28 = load i32, ptr %10, align 4
  %29 = insertvalue { ptr, i32 } poison, ptr %27, 0
  %30 = insertvalue { ptr, i32 } %29, i32 %28, 1
  resume { ptr, i32 } %30
}